target datalayout = "e-m:e-p270:32:32-p271:32:32-p272:64:64-i64:64-i128:128-f80:128-n8:16:32:64-S128"
target triple = "x86_64-unknown-linux-gnu"

%"struct.std::_Rb_tree_node_base" = type { i32, ptr, ptr, ptr }
%"struct.std::_Rb_tree_const_iterator" = type { ptr }
%"struct.std::pair" = type { i32, i32 }
%"class.base::(anonymous namespace)::SampleMapIterator" = type { %"class.base::SampleCountIterator", %"struct.std::_Rb_tree_const_iterator", %"struct.std::_Rb_tree_const_iterator" }
%"class.base::SampleCountIterator" = type { ptr }
%"struct.std::_Rb_tree_node" = type { %"struct.std::_Rb_tree_node_base", %"struct.__gnu_cxx::__aligned_membuf" }
%"struct.__gnu_cxx::__aligned_membuf" = type { [8 x i8] }

; Function Attrs: mustprogress nounwind uwtable
define linkonce_odr dso_local noundef ptr @_ZNK9__gnu_cxx16__aligned_membufISt4pairIKiiEE7_M_addrEv(ptr noundef nonnull align 4 dereferenceable(8) %this) #2 comdat align 2 {
entry:
  %this.addr = alloca ptr, align 8
  store ptr %this, ptr %this.addr, align 8
  %this1 = load ptr, ptr %this.addr, align 8
  %_M_storage = getelementptr inbounds %"struct.__gnu_cxx::__aligned_membuf", ptr %this1, i32 0, i32 0
  ret ptr %_M_storage
}

; Function Attrs: mustprogress nounwind uwtable
define linkonce_odr dso_local noundef ptr @_ZNK9__gnu_cxx16__aligned_membufISt4pairIKiiEE6_M_ptrEv(ptr noundef nonnull align 4 dereferenceable(8) %this) #2 comdat align 2 {
entry:
  %this.addr = alloca ptr, align 8
  store ptr %this, ptr %this.addr, align 8
  %this1 = load ptr, ptr %this.addr, align 8
  %call = call noundef ptr @_ZNK9__gnu_cxx16__aligned_membufISt4pairIKiiEE7_M_addrEv(ptr noundef nonnull align 4 dereferenceable(8) %this1) #10
  ret ptr %call
}

; Function Attrs: noreturn nounwind uwtable
define linkonce_odr hidden void @__clang_call_terminate(ptr noundef %0) #6 comdat {
  %2 = call ptr @__cxa_begin_catch(ptr %0) #10
  call void @_ZSt9terminatev() #12
  unreachable
}

; Function Attrs: mustprogress nounwind uwtable
define linkonce_odr dso_local noundef ptr @_ZNKSt13_Rb_tree_nodeISt4pairIKiiEE9_M_valptrEv(ptr noundef nonnull align 8 dereferenceable(40) %this) #2 comdat align 2 {
entry:
  %this.addr = alloca ptr, align 8
  store ptr %this, ptr %this.addr, align 8
  %this1 = load ptr, ptr %this.addr, align 8
  %_M_storage = getelementptr inbounds %"struct.std::_Rb_tree_node", ptr %this1, i32 0, i32 1
  %call = call noundef ptr @_ZNK9__gnu_cxx16__aligned_membufISt4pairIKiiEE6_M_ptrEv(ptr noundef nonnull align 4 dereferenceable(8) %_M_storage) #10
  ret ptr %call
}

; Function Attrs: mustprogress nounwind uwtable
define linkonce_odr dso_local noundef ptr @_ZNKSt23_Rb_tree_const_iteratorISt4pairIKiiEEptEv(ptr noundef nonnull align 8 dereferenceable(8) %this) #2 comdat align 2 personality ptr @__gxx_personality_v0 {
entry:
  %this.addr = alloca ptr, align 8
  store ptr %this, ptr %this.addr, align 8
  %this1 = load ptr, ptr %this.addr, align 8
  %_M_node = getelementptr inbounds %"struct.std::_Rb_tree_const_iterator", ptr %this1, i32 0, i32 0
  %0 = load ptr, ptr %_M_node, align 8
  %call = invoke noundef ptr @_ZNKSt13_Rb_tree_nodeISt4pairIKiiEE9_M_valptrEv(ptr noundef nonnull align 8 dereferenceable(40) %0)
          to label %invoke.cont unwind label %terminate.lpad

invoke.cont:                                      ; preds = %entry
  ret ptr %call

terminate.lpad:                                   ; preds = %entry
  %1 = landingpad { ptr, i32 }
          catch ptr null
  %2 = extractvalue { ptr, i32 } %1, 0
  call void @__clang_call_terminate(ptr %2) #12
  unreachable
}

; Function Attrs: mustprogress uwtable
define internal void @_ZN4base12_GLOBAL__N_117SampleMapIterator16SkipEmptyBucketsEv(ptr noundef nonnull align 8 dereferenceable(24) %this) #0 align 2 {
entry:
  %this.addr = alloca ptr, align 8
  store ptr %this, ptr %this.addr, align 8
  %this1 = load ptr, ptr %this.addr, align 8
  br label %while.cond

while.cond:                                       ; preds = %while.body, %entry
  %vtable = load ptr, ptr %this1, align 8
  %vfn = getelementptr inbounds ptr, ptr %vtable, i64 2
  %0 = load ptr, ptr %vfn, align 8
  %call = call noundef zeroext i1 %0(ptr noundef nonnull align 8 dereferenceable(24) %this1)
  br i1 %call, label %land.end, label %land.rhs

land.rhs:                                         ; preds = %while.cond
  %iter_ = getelementptr inbounds %"class.base::(anonymous namespace)::SampleMapIterator", ptr %this1, i32 0, i32 1
  %call2 = call noundef ptr @_ZNKSt23_Rb_tree_const_iteratorISt4pairIKiiEEptEv(ptr noundef nonnull align 8 dereferenceable(8) %iter_) #10
  %second = getelementptr inbounds %"struct.std::pair", ptr %call2, i32 0, i32 1
  %1 = load i32, ptr %second, align 4
  %cmp = icmp eq i32 %1, 0
  br label %land.end

land.end:                                         ; preds = %land.rhs, %while.cond
  %2 = phi i1 [ false, %while.cond ], [ %cmp, %land.rhs ]
  br i1 %2, label %while.body, label %while.end

while.body:                                       ; preds = %land.end
  %iter_3 = getelementptr inbounds %"class.base::(anonymous namespace)::SampleMapIterator", ptr %this1, i32 0, i32 1
  %call4 = call noundef nonnull align 8 dereferenceable(8) ptr @_ZNSt23_Rb_tree_const_iteratorISt4pairIKiiEEppEv(ptr noundef nonnull align 8 dereferenceable(8) %iter_3) #10
  br label %while.cond, !llvm.loop !8

while.end:                                        ; preds = %land.end
  ret void
}

; Function Attrs: mustprogress nounwind uwtable
define linkonce_odr dso_local noundef nonnull align 8 dereferenceable(8) ptr @_ZNSt23_Rb_tree_const_iteratorISt4pairIKiiEEppEv(ptr noundef nonnull align 8 dereferenceable(8) %this) #2 comdat align 2 {
entry:
  %this.addr = alloca ptr, align 8
  store ptr %this, ptr %this.addr, align 8
  %this1 = load ptr, ptr %this.addr, align 8
  %_M_node = getelementptr inbounds %"struct.std::_Rb_tree_const_iterator", ptr %this1, i32 0, i32 0
  %0 = load ptr, ptr %_M_node, align 8
  %call = call noundef ptr @_ZSt18_Rb_tree_incrementPKSt18_Rb_tree_node_base(ptr noundef %0) #13
  %_M_node2 = getelementptr inbounds %"struct.std::_Rb_tree_const_iterator", ptr %this1, i32 0, i32 0
  store ptr %call, ptr %_M_node2, align 8
  ret ptr %this1
}

; Function Attrs: mustprogress uwtable
define internal void @_ZN4base12_GLOBAL__N_117SampleMapIterator4NextEv(ptr noundef nonnull align 8 dereferenceable(24) %this) unnamed_addr #0 align 2 {
entry:
  %this.addr = alloca ptr, align 8
  store ptr %this, ptr %this.addr, align 8
  %this1 = load ptr, ptr %this.addr, align 8
  %iter_ = getelementptr inbounds %"class.base::(anonymous namespace)::SampleMapIterator", ptr %this1, i32 0, i32 1
  %call = call noundef nonnull align 8 dereferenceable(8) ptr @_ZNSt23_Rb_tree_const_iteratorISt4pairIKiiEEppEv(ptr noundef nonnull align 8 dereferenceable(8) %iter_) #10
  call void @_ZN4base12_GLOBAL__N_117SampleMapIterator16SkipEmptyBucketsEv(ptr noundef nonnull align 8 dereferenceable(24) %this1)
  ret void
}