; Function Attrs: mustprogress uwtable
define internal void @_ZN4base12_GLOBAL__N_117SampleMapIterator4NextEv(ptr noundef nonnull align 8 dereferenceable(24) %this) unnamed_addr #0 align 2 personality ptr @__gxx_personality_v0 {
entry:
  %iter_ = getelementptr inbounds i8, ptr %this, i64 8
  %0 = load ptr, ptr %iter_, align 8
  %call.i = tail call noundef ptr @_ZSt18_Rb_tree_incrementPKSt18_Rb_tree_node_base(ptr noundef %0) #16
  store ptr %call.i, ptr %iter_, align 8
  %vtable1.i = load ptr, ptr %this, align 8
  %vfn2.i = getelementptr inbounds i8, ptr %vtable1.i, i64 16
  %1 = load ptr, ptr %vfn2.i, align 8
  %call3.i = tail call noundef zeroext i1 %1(ptr noundef nonnull align 8 dereferenceable(24) %this)
  br i1 %call3.i, label %_ZN4base12_GLOBAL__N_117SampleMapIterator16SkipEmptyBucketsEv.exit, label %land.rhs.i

land.rhs.i:                                       ; preds = %entry, %while.body.i
  %2 = load ptr, ptr %iter_, align 8
  %second.i = getelementptr inbounds i8, ptr %2, i64 36
  %3 = load i32, ptr %second.i, align 4
  %cmp.i = icmp eq i32 %3, 0
  br i1 %cmp.i, label %while.body.i, label %_ZN4base12_GLOBAL__N_117SampleMapIterator16SkipEmptyBucketsEv.exit

while.body.i:                                     ; preds = %land.rhs.i
  %call.i.i = tail call noundef ptr @_ZSt18_Rb_tree_incrementPKSt18_Rb_tree_node_base(ptr noundef nonnull %2) #16
  store ptr %call.i.i, ptr %iter_, align 8
  %vtable.i = load ptr, ptr %this, align 8
  %vfn.i = getelementptr inbounds i8, ptr %vtable.i, i64 16
  %4 = load ptr, ptr %vfn.i, align 8
  %call.i1 = tail call noundef zeroext i1 %4(ptr noundef nonnull align 8 dereferenceable(24) %this)
  br i1 %call.i1, label %_ZN4base12_GLOBAL__N_117SampleMapIterator16SkipEmptyBucketsEv.exit, label %land.rhs.i, !llvm.loop !8

_ZN4base12_GLOBAL__N_117SampleMapIterator16SkipEmptyBucketsEv.exit: ; preds = %land.rhs.i, %while.body.i, %entry
  ret void
}